target datalayout = "e-m:e-p270:32:32-p271:32:32-p272:64:64-i64:64-i128:128-f80:128-n8:16:32:64-S128"
target triple = "x86_64-pc-linux-gnu"

%class.Node = type <{ ptr, ptr, ptr, i32, i32, i32, i32, i32, i32, i32, [4 x i8] }>

; Function Attrs: mustprogress nounwind uwtable
define linkonce_odr hidden noundef ptr @_ZNK4Node2inEj(ptr noundef nonnull align 8 dereferenceable(52) %0, i32 noundef %1) #1 comdat align 2 {
  %3 = alloca ptr, align 8
  %4 = alloca i32, align 4
  store ptr %0, ptr %3, align 8
  store i32 %1, ptr %4, align 4
  %5 = load ptr, ptr %3, align 8
  %6 = getelementptr inbounds %class.Node, ptr %5, i32 0, i32 1
  %7 = load ptr, ptr %6, align 8
  %8 = load i32, ptr %4, align 4
  %9 = zext i32 %8 to i64
  %10 = getelementptr inbounds ptr, ptr %7, i64 %9
  %11 = load ptr, ptr %10, align 8
  ret ptr %11
}

; Function Attrs: mustprogress nounwind uwtable
define linkonce_odr hidden noundef zeroext i1 @_ZNK4Node8is_StoreEv(ptr noundef nonnull align 8 dereferenceable(52) %0) #1 comdat align 2 {
  %2 = alloca ptr, align 8
  store ptr %0, ptr %2, align 8
  %3 = load ptr, ptr %2, align 8
  %4 = getelementptr inbounds %class.Node, ptr %3, i32 0, i32 8
  %5 = load i32, ptr %4, align 4
  %6 = and i32 %5, 127
  %7 = icmp eq i32 %6, 80
  ret i1 %7
}

; Function Attrs: mustprogress nounwind uwtable
define hidden noundef i64 @_ZN14InitializeNode16get_store_offsetEP4NodeP11PhaseValues(ptr noundef %0, ptr noundef %1) #1 align 2 {
  %3 = alloca i64, align 8
  %4 = alloca ptr, align 8
  %5 = alloca ptr, align 8
  %6 = alloca i64, align 8
  %7 = alloca ptr, align 8
  store ptr %0, ptr %4, align 8
  store ptr %1, ptr %5, align 8
  %8 = load ptr, ptr %4, align 8
  %9 = call noundef zeroext i1 @_ZNK4Node8is_StoreEv(ptr noundef nonnull align 8 dereferenceable(52) %8)
  br i1 %9, label %11, label %10

10:                                               ; preds = %2
  store i64 -1, ptr %3, align 8
  br label %25

11:                                               ; preds = %2
  store i64 -1, ptr %6, align 8
  %12 = load ptr, ptr %4, align 8
  %13 = call noundef ptr @_ZNK4Node2inEj(ptr noundef nonnull align 8 dereferenceable(52) %12, i32 noundef 2)
  %14 = load ptr, ptr %5, align 8
  %15 = call noundef ptr @_ZN8AddPNode21Ideal_base_and_offsetEP4NodeP11PhaseValuesRl(ptr noundef %13, ptr noundef %14, ptr noundef nonnull align 8 dereferenceable(8) %6)
  store ptr %15, ptr %7, align 8
  %16 = load ptr, ptr %7, align 8
  %17 = icmp eq ptr %16, null
  br i1 %17, label %18, label %19

18:                                               ; preds = %11
  store i64 -1, ptr %3, align 8
  br label %25

19:                                               ; preds = %11
  %20 = load i64, ptr %6, align 8
  %21 = icmp slt i64 %20, 0
  br i1 %21, label %22, label %23

22:                                               ; preds = %19
  store i64 -1, ptr %3, align 8
  br label %25

23:                                               ; preds = %19
  %24 = load i64, ptr %6, align 8
  store i64 %24, ptr %3, align 8
  br label %25

25:                                               ; preds = %23, %22, %18, %10
  %26 = load i64, ptr %3, align 8
  ret i64 %26
}