; Function Attrs: mustprogress nounwind uwtable
define hidden noundef range(i64 -1, -9223372036854775808) i64 @_ZN14InitializeNode16get_store_offsetEP4NodeP11PhaseValues(ptr nocapture noundef readonly %0, ptr noundef %1) local_unnamed_addr #1 align 2 {
  %3 = alloca i64, align 8
  %4 = getelementptr inbounds i8, ptr %0, i64 44
  %5 = load i32, ptr %4, align 4
  %6 = and i32 %5, 127
  %7 = icmp eq i32 %6, 80
  br i1 %7, label %8, label %17

8:                                                ; preds = %2
  store i64 -1, ptr %3, align 8
  %9 = getelementptr inbounds i8, ptr %0, i64 8
  %10 = load ptr, ptr %9, align 8
  %11 = getelementptr inbounds i8, ptr %10, i64 16
  %12 = load ptr, ptr %11, align 8
  %13 = call noundef ptr @_ZN8AddPNode21Ideal_base_and_offsetEP4NodeP11PhaseValuesRl(ptr noundef %12, ptr noundef %1, ptr noundef nonnull align 8 dereferenceable(8) %3) #13
  %14 = icmp eq ptr %13, null
  br i1 %14, label %17, label %15

15:                                               ; preds = %8
  %16 = load i64, ptr %3, align 8
  %. = call i64 @llvm.smax.i64(i64 %16, i64 -1)
  br label %17

17:                                               ; preds = %15, %8, %2
  %.0 = phi i64 [ -1, %2 ], [ -1, %8 ], [ %., %15 ]
  ret i64 %.0
}